target datalayout = "e-m:e-p270:32:32-p271:32:32-p272:64:64-i64:64-i128:128-f80:128-n8:16:32:64-S128"
target triple = "x86_64-pc-linux-gnu"

%struct.H5G_loc_t = type { ptr, ptr }
%struct.H5O_token_t = type { [16 x i8] }
%struct.H5VL_loc_params_t = type { i32, i32, %union.anon }
%union.anon = type { %struct.H5VL_loc_by_idx }
%struct.H5VL_loc_by_idx = type { ptr, i32, i32, i64, i64 }
%struct.H5VL_loc_by_name = type { ptr, i64 }
%struct.H5VL_loc_by_token = type { ptr }
%struct.H5O_loc_t = type { ptr, i64, i8 }

@.str = private unnamed_addr constant [111 x i8] c"generated/home/dtcxzyw/WorkSpace/Projects/compilers/llvm-opt-benchmark/bench/hdf5/hdf5/src/H5VLnative_object.c\00", align 1
@__func__.H5VL__native_object_open = private unnamed_addr constant [25 x i8] c"H5VL__native_object_open\00", align 1
@H5E_ARGS_g = external global i64, align 8
@H5E_BADTYPE_g = external global i64, align 8
@.str.1 = private unnamed_addr constant [26 x i8] c"not a file or file object\00", align 1
@H5E_OHDR_g = external global i64, align 8
@H5E_CANTOPENOBJ_g = external global i64, align 8
@.str.2 = private unnamed_addr constant [30 x i8] c"unable to open object by name\00", align 1
@.str.3 = private unnamed_addr constant [31 x i8] c"unable to open object by index\00", align 1
@H5E_CANTUNSERIALIZE_g = external global i64, align 8
@.str.4 = private unnamed_addr constant [44 x i8] c"can't deserialize object token into address\00", align 1
@.str.5 = private unnamed_addr constant [33 x i8] c"unable to open object by address\00", align 1
@H5E_VOL_g = external global i64, align 8
@H5E_UNSUPPORTED_g = external global i64, align 8
@.str.6 = private unnamed_addr constant [24 x i8] c"unknown open parameters\00", align 1

; Function Attrs: nounwind uwtable
define ptr @H5VL__native_object_open(ptr noundef %0, ptr noundef %1, ptr noundef %2, i64 noundef %3, ptr noundef %4) #0 {
  %6 = alloca ptr, align 8
  %7 = alloca ptr, align 8
  %8 = alloca ptr, align 8
  %9 = alloca i64, align 8
  %10 = alloca ptr, align 8
  %11 = alloca %struct.H5G_loc_t, align 8
  %12 = alloca ptr, align 8
  %13 = alloca i8, align 1
  %14 = alloca %struct.H5O_token_t, align 1
  %15 = alloca i64, align 8
  store ptr %0, ptr %6, align 8
  store ptr %1, ptr %7, align 8
  store ptr %2, ptr %8, align 8
  store i64 %3, ptr %9, align 8
  store ptr %4, ptr %10, align 8
  store ptr null, ptr %12, align 8
  store i8 0, ptr %13, align 1
  %16 = load ptr, ptr %6, align 8
  %17 = load ptr, ptr %7, align 8
  %18 = getelementptr inbounds %struct.H5VL_loc_params_t, ptr %17, i32 0, i32 0
  %19 = load i32, ptr %18, align 8
  %20 = call i32 @H5G_loc_real(ptr noundef %16, i32 noundef %19, ptr noundef %11)
  %21 = icmp slt i32 %20, 0
  br i1 %21, label %22, label %37

22:                                               ; preds = %5
  br label %23

23:                                               ; preds = %22
  br label %24

24:                                               ; preds = %23
  br label %25

25:                                               ; preds = %24
  %26 = load i64, ptr @H5E_ARGS_g, align 8
  %27 = load i64, ptr @H5E_BADTYPE_g, align 8
  %28 = call i32 (ptr, ptr, i32, i64, i64, ptr, ...) @H5E_printf_stack(ptr noundef @.str, ptr noundef @__func__.H5VL__native_object_open, i32 noundef 82, i64 noundef %26, i64 noundef %27, ptr noundef @.str.1)
  br label %29

29:                                               ; preds = %25
  store i8 1, ptr %13, align 1
  %30 = load i8, ptr %13, align 1
  %31 = trunc i8 %30 to i1
  %32 = zext i1 %31 to i8
  store i8 %32, ptr %13, align 1
  br label %33

33:                                               ; preds = %29
  br label %34

34:                                               ; preds = %33
  store ptr null, ptr %12, align 8
  br label %169

35:                                               ; No predecessors!
  br label %36

36:                                               ; preds = %35
  br label %37

37:                                               ; preds = %36, %5
  %38 = load ptr, ptr %7, align 8
  %39 = getelementptr inbounds %struct.H5VL_loc_params_t, ptr %38, i32 0, i32 1
  %40 = load i32, ptr %39, align 4
  switch i32 %40, label %153 [
    i32 1, label %41
    i32 2, label %65
    i32 3, label %101
    i32 0, label %152
  ]

41:                                               ; preds = %37
  %42 = load ptr, ptr %7, align 8
  %43 = getelementptr inbounds %struct.H5VL_loc_params_t, ptr %42, i32 0, i32 2
  %44 = getelementptr inbounds %struct.H5VL_loc_by_name, ptr %43, i32 0, i32 0
  %45 = load ptr, ptr %44, align 8
  %46 = load ptr, ptr %8, align 8
  %47 = call ptr @H5O_open_name(ptr noundef %11, ptr noundef %45, ptr noundef %46)
  store ptr %47, ptr %12, align 8
  %48 = icmp eq ptr null, %47
  br i1 %48, label %49, label %64

49:                                               ; preds = %41
  br label %50

50:                                               ; preds = %49
  br label %51

51:                                               ; preds = %50
  br label %52

52:                                               ; preds = %51
  %53 = load i64, ptr @H5E_OHDR_g, align 8
  %54 = load i64, ptr @H5E_CANTOPENOBJ_g, align 8
  %55 = call i32 (ptr, ptr, i32, i64, i64, ptr, ...) @H5E_printf_stack(ptr noundef @.str, ptr noundef @__func__.H5VL__native_object_open, i32 noundef 88, i64 noundef %53, i64 noundef %54, ptr noundef @.str.2)
  br label %56

56:                                               ; preds = %52
  store i8 1, ptr %13, align 1
  %57 = load i8, ptr %13, align 1
  %58 = trunc i8 %57 to i1
  %59 = zext i1 %58 to i8
  store i8 %59, ptr %13, align 1
  br label %60

60:                                               ; preds = %56
  br label %61

61:                                               ; preds = %60
  store ptr null, ptr %12, align 8
  br label %169

62:                                               ; No predecessors!
  br label %63

63:                                               ; preds = %62
  br label %64

64:                                               ; preds = %63, %41
  br label %168

65:                                               ; preds = %37
  %66 = load ptr, ptr %7, align 8
  %67 = getelementptr inbounds %struct.H5VL_loc_params_t, ptr %66, i32 0, i32 2
  %68 = getelementptr inbounds %struct.H5VL_loc_by_idx, ptr %67, i32 0, i32 0
  %69 = load ptr, ptr %68, align 8
  %70 = load ptr, ptr %7, align 8
  %71 = getelementptr inbounds %struct.H5VL_loc_params_t, ptr %70, i32 0, i32 2
  %72 = getelementptr inbounds %struct.H5VL_loc_by_idx, ptr %71, i32 0, i32 1
  %73 = load i32, ptr %72, align 8
  %74 = load ptr, ptr %7, align 8
  %75 = getelementptr inbounds %struct.H5VL_loc_params_t, ptr %74, i32 0, i32 2
  %76 = getelementptr inbounds %struct.H5VL_loc_by_idx, ptr %75, i32 0, i32 2
  %77 = load i32, ptr %76, align 4
  %78 = load ptr, ptr %7, align 8
  %79 = getelementptr inbounds %struct.H5VL_loc_params_t, ptr %78, i32 0, i32 2
  %80 = getelementptr inbounds %struct.H5VL_loc_by_idx, ptr %79, i32 0, i32 3
  %81 = load i64, ptr %80, align 8
  %82 = load ptr, ptr %8, align 8
  %83 = call ptr @H5O__open_by_idx(ptr noundef %11, ptr noundef %69, i32 noundef %73, i32 noundef %77, i64 noundef %81, ptr noundef %82)
  store ptr %83, ptr %12, align 8
  %84 = icmp eq ptr null, %83
  br i1 %84, label %85, label %100

85:                                               ; preds = %65
  br label %86

86:                                               ; preds = %85
  br label %87

87:                                               ; preds = %86
  br label %88

88:                                               ; preds = %87
  %89 = load i64, ptr @H5E_OHDR_g, align 8
  %90 = load i64, ptr @H5E_CANTOPENOBJ_g, align 8
  %91 = call i32 (ptr, ptr, i32, i64, i64, ptr, ...) @H5E_printf_stack(ptr noundef @.str, ptr noundef @__func__.H5VL__native_object_open, i32 noundef 98, i64 noundef %89, i64 noundef %90, ptr noundef @.str.3)
  br label %92

92:                                               ; preds = %88
  store i8 1, ptr %13, align 1
  %93 = load i8, ptr %13, align 1
  %94 = trunc i8 %93 to i1
  %95 = zext i1 %94 to i8
  store i8 %95, ptr %13, align 1
  br label %96

96:                                               ; preds = %92
  br label %97

97:                                               ; preds = %96
  store ptr null, ptr %12, align 8
  br label %169

98:                                               ; No predecessors!
  br label %99

99:                                               ; preds = %98
  br label %100

100:                                              ; preds = %99, %65
  br label %168

101:                                              ; preds = %37
  %102 = load ptr, ptr %7, align 8
  %103 = getelementptr inbounds %struct.H5VL_loc_params_t, ptr %102, i32 0, i32 2
  %104 = getelementptr inbounds %struct.H5VL_loc_by_token, ptr %103, i32 0, i32 0
  %105 = load ptr, ptr %104, align 8
  call void @llvm.memcpy.p0.p0.i64(ptr align 1 %14, ptr align 1 %105, i64 16, i1 false)
  %106 = getelementptr inbounds %struct.H5G_loc_t, ptr %11, i32 0, i32 0
  %107 = load ptr, ptr %106, align 8
  %108 = getelementptr inbounds %struct.H5O_loc_t, ptr %107, i32 0, i32 0
  %109 = load ptr, ptr %108, align 8
  %110 = getelementptr inbounds { i64, i64 }, ptr %14, i32 0, i32 0
  %111 = load i64, ptr %110, align 1
  %112 = getelementptr inbounds { i64, i64 }, ptr %14, i32 0, i32 1
  %113 = load i64, ptr %112, align 1
  %114 = call i32 @H5VL_native_token_to_addr(ptr noundef %109, i32 noundef 1, i64 %111, i64 %113, ptr noundef %15)
  %115 = icmp slt i32 %114, 0
  br i1 %115, label %116, label %131

116:                                              ; preds = %101
  br label %117

117:                                              ; preds = %116
  br label %118

118:                                              ; preds = %117
  br label %119

119:                                              ; preds = %118
  %120 = load i64, ptr @H5E_OHDR_g, align 8
  %121 = load i64, ptr @H5E_CANTUNSERIALIZE_g, align 8
  %122 = call i32 (ptr, ptr, i32, i64, i64, ptr, ...) @H5E_printf_stack(ptr noundef @.str, ptr noundef @__func__.H5VL__native_object_open, i32 noundef 109, i64 noundef %120, i64 noundef %121, ptr noundef @.str.4)
  br label %123

123:                                              ; preds = %119
  store i8 1, ptr %13, align 1
  %124 = load i8, ptr %13, align 1
  %125 = trunc i8 %124 to i1
  %126 = zext i1 %125 to i8
  store i8 %126, ptr %13, align 1
  br label %127

127:                                              ; preds = %123
  br label %128

128:                                              ; preds = %127
  store ptr null, ptr %12, align 8
  br label %169

129:                                              ; No predecessors!
  br label %130

130:                                              ; preds = %129
  br label %131

131:                                              ; preds = %130, %101
  %132 = load i64, ptr %15, align 8
  %133 = load ptr, ptr %8, align 8
  %134 = call ptr @H5O__open_by_addr(ptr noundef %11, i64 noundef %132, ptr noundef %133)
  store ptr %134, ptr %12, align 8
  %135 = icmp eq ptr null, %134
  br i1 %135, label %136, label %151

136:                                              ; preds = %131
  br label %137

137:                                              ; preds = %136
  br label %138

138:                                              ; preds = %137
  br label %139

139:                                              ; preds = %138
  %140 = load i64, ptr @H5E_OHDR_g, align 8
  %141 = load i64, ptr @H5E_CANTOPENOBJ_g, align 8
  %142 = call i32 (ptr, ptr, i32, i64, i64, ptr, ...) @H5E_printf_stack(ptr noundef @.str, ptr noundef @__func__.H5VL__native_object_open, i32 noundef 113, i64 noundef %140, i64 noundef %141, ptr noundef @.str.5)
  br label %143

143:                                              ; preds = %139
  store i8 1, ptr %13, align 1
  %144 = load i8, ptr %13, align 1
  %145 = trunc i8 %144 to i1
  %146 = zext i1 %145 to i8
  store i8 %146, ptr %13, align 1
  br label %147

147:                                              ; preds = %143
  br label %148

148:                                              ; preds = %147
  store ptr null, ptr %12, align 8
  br label %169

149:                                              ; No predecessors!
  br label %150

150:                                              ; preds = %149
  br label %151

151:                                              ; preds = %150, %131
  br label %168

152:                                              ; preds = %37
  br label %153

153:                                              ; preds = %152, %37
  br label %154

154:                                              ; preds = %153
  br label %155

155:                                              ; preds = %154
  br label %156

156:                                              ; preds = %155
  %157 = load i64, ptr @H5E_VOL_g, align 8
  %158 = load i64, ptr @H5E_UNSUPPORTED_g, align 8
  %159 = call i32 (ptr, ptr, i32, i64, i64, ptr, ...) @H5E_printf_stack(ptr noundef @.str, ptr noundef @__func__.H5VL__native_object_open, i32 noundef 119, i64 noundef %157, i64 noundef %158, ptr noundef @.str.6)
  br label %160

160:                                              ; preds = %156
  store i8 1, ptr %13, align 1
  %161 = load i8, ptr %13, align 1
  %162 = trunc i8 %161 to i1
  %163 = zext i1 %162 to i8
  store i8 %163, ptr %13, align 1
  br label %164

164:                                              ; preds = %160
  br label %165

165:                                              ; preds = %164
  store ptr null, ptr %12, align 8
  br label %169

166:                                              ; No predecessors!
  br label %167

167:                                              ; preds = %166
  br label %168

168:                                              ; preds = %167, %151, %100, %64
  br label %169

169:                                              ; preds = %168, %165, %148, %128, %97, %61, %34
  %170 = load ptr, ptr %12, align 8
  ret ptr %170
}