; Function Attrs: nounwind uwtable
define ptr @H5VL__native_object_open(ptr noundef %0, ptr nocapture noundef readonly %1, ptr noundef %2, i64 noundef %3, ptr nocapture noundef readnone %4) local_unnamed_addr #0 {
  %6 = alloca %struct.H5G_loc_t, align 8
  %7 = alloca i64, align 8
  %8 = load i32, ptr %1, align 8
  %9 = call i32 @H5G_loc_real(ptr noundef %0, i32 noundef %8, ptr noundef nonnull %6) #2
  %10 = icmp slt i32 %9, 0
  br i1 %10, label %11, label %15

11:                                               ; preds = %5
  %12 = load i64, ptr @H5E_ARGS_g, align 8
  %13 = load i64, ptr @H5E_BADTYPE_g, align 8
  %14 = call i32 (ptr, ptr, i32, i64, i64, ptr, ...) @H5E_printf_stack(ptr noundef nonnull @.str, ptr noundef nonnull @__func__.H5VL__native_object_open, i32 noundef 82, i64 noundef %12, i64 noundef %13, ptr noundef nonnull @.str.1) #2
  br label %65

15:                                               ; preds = %5
  %16 = getelementptr inbounds i8, ptr %1, i64 4
  %17 = load i32, ptr %16, align 4
  switch i32 %17, label %61 [
    i32 1, label %18
    i32 2, label %27
    i32 3, label %42
  ]

18:                                               ; preds = %15
  %19 = getelementptr inbounds i8, ptr %1, i64 8
  %20 = load ptr, ptr %19, align 8
  %21 = call ptr @H5O_open_name(ptr noundef nonnull %6, ptr noundef %20, ptr noundef %2) #2
  %22 = icmp eq ptr %21, null
  br i1 %22, label %23, label %65

23:                                               ; preds = %18
  %24 = load i64, ptr @H5E_OHDR_g, align 8
  %25 = load i64, ptr @H5E_CANTOPENOBJ_g, align 8
  %26 = call i32 (ptr, ptr, i32, i64, i64, ptr, ...) @H5E_printf_stack(ptr noundef nonnull @.str, ptr noundef nonnull @__func__.H5VL__native_object_open, i32 noundef 88, i64 noundef %24, i64 noundef %25, ptr noundef nonnull @.str.2) #2
  br label %65

27:                                               ; preds = %15
  %28 = getelementptr inbounds i8, ptr %1, i64 8
  %29 = load ptr, ptr %28, align 8
  %30 = getelementptr inbounds i8, ptr %1, i64 16
  %31 = load i32, ptr %30, align 8
  %32 = getelementptr inbounds i8, ptr %1, i64 20
  %33 = load i32, ptr %32, align 4
  %34 = getelementptr inbounds i8, ptr %1, i64 24
  %35 = load i64, ptr %34, align 8
  %36 = call ptr @H5O__open_by_idx(ptr noundef nonnull %6, ptr noundef %29, i32 noundef %31, i32 noundef %33, i64 noundef %35, ptr noundef %2) #2
  %37 = icmp eq ptr %36, null
  br i1 %37, label %38, label %65

38:                                               ; preds = %27
  %39 = load i64, ptr @H5E_OHDR_g, align 8
  %40 = load i64, ptr @H5E_CANTOPENOBJ_g, align 8
  %41 = call i32 (ptr, ptr, i32, i64, i64, ptr, ...) @H5E_printf_stack(ptr noundef nonnull @.str, ptr noundef nonnull @__func__.H5VL__native_object_open, i32 noundef 98, i64 noundef %39, i64 noundef %40, ptr noundef nonnull @.str.3) #2
  br label %65

42:                                               ; preds = %15
  %43 = getelementptr inbounds i8, ptr %1, i64 8
  %44 = load ptr, ptr %43, align 8
  %.sroa.0.0.copyload = load i64, ptr %44, align 1
  %.sroa.2.0..sroa_idx = getelementptr inbounds i8, ptr %44, i64 8
  %.sroa.2.0.copyload = load i64, ptr %.sroa.2.0..sroa_idx, align 1
  %45 = load ptr, ptr %6, align 8
  %46 = load ptr, ptr %45, align 8
  %47 = call i32 @H5VL_native_token_to_addr(ptr noundef %46, i32 noundef 1, i64 %.sroa.0.0.copyload, i64 %.sroa.2.0.copyload, ptr noundef nonnull %7) #2
  %48 = icmp slt i32 %47, 0
  br i1 %48, label %49, label %53

49:                                               ; preds = %42
  %50 = load i64, ptr @H5E_OHDR_g, align 8
  %51 = load i64, ptr @H5E_CANTUNSERIALIZE_g, align 8
  %52 = call i32 (ptr, ptr, i32, i64, i64, ptr, ...) @H5E_printf_stack(ptr noundef nonnull @.str, ptr noundef nonnull @__func__.H5VL__native_object_open, i32 noundef 109, i64 noundef %50, i64 noundef %51, ptr noundef nonnull @.str.4) #2
  br label %65

53:                                               ; preds = %42
  %54 = load i64, ptr %7, align 8
  %55 = call ptr @H5O__open_by_addr(ptr noundef nonnull %6, i64 noundef %54, ptr noundef %2) #2
  %56 = icmp eq ptr %55, null
  br i1 %56, label %57, label %65

57:                                               ; preds = %53
  %58 = load i64, ptr @H5E_OHDR_g, align 8
  %59 = load i64, ptr @H5E_CANTOPENOBJ_g, align 8
  %60 = call i32 (ptr, ptr, i32, i64, i64, ptr, ...) @H5E_printf_stack(ptr noundef nonnull @.str, ptr noundef nonnull @__func__.H5VL__native_object_open, i32 noundef 113, i64 noundef %58, i64 noundef %59, ptr noundef nonnull @.str.5) #2
  br label %65

61:                                               ; preds = %15
  %62 = load i64, ptr @H5E_VOL_g, align 8
  %63 = load i64, ptr @H5E_UNSUPPORTED_g, align 8
  %64 = call i32 (ptr, ptr, i32, i64, i64, ptr, ...) @H5E_printf_stack(ptr noundef nonnull @.str, ptr noundef nonnull @__func__.H5VL__native_object_open, i32 noundef 119, i64 noundef %62, i64 noundef %63, ptr noundef nonnull @.str.6) #2
  br label %65

65:                                               ; preds = %18, %27, %53, %61, %57, %49, %38, %23, %11
  %.0 = phi ptr [ null, %11 ], [ null, %61 ], [ null, %49 ], [ null, %57 ], [ %55, %53 ], [ null, %38 ], [ %36, %27 ], [ null, %23 ], [ %21, %18 ]
  ret ptr %.0
}